target datalayout = "e-m:e-p270:32:32-p271:32:32-p272:64:64-i64:64-i128:128-f80:128-n8:16:32:64-S128"
target triple = "x86_64-pc-linux-gnu"

%struct.dict = type { ptr, [2 x ptr], [2 x i64], i64, i16, [2 x i8], i16, [0 x ptr] }

@lazyfree_objects = internal global i64 0, align 8

; Function Attrs: nounwind uwtable
define dso_local void @freeFunctionsAsync(ptr noundef %0, ptr noundef %1) #0 {
  %3 = alloca ptr, align 8
  %4 = alloca ptr, align 8
  %5 = alloca i64, align 8
  %6 = alloca i64, align 8
  store ptr %0, ptr %3, align 8, !tbaa !25
  store ptr %1, ptr %4, align 8, !tbaa !17
  %7 = load ptr, ptr %3, align 8, !tbaa !25
  %8 = call i64 @functionsLibCtxFunctionsLen(ptr noundef %7)
  %9 = icmp ugt i64 %8, 64
  br i1 %9, label %10, label %27

10:                                               ; preds = %2
  %11 = load ptr, ptr %3, align 8, !tbaa !25
  %12 = call i64 @functionsLibCtxFunctionsLen(ptr noundef %11)
  %13 = load ptr, ptr %4, align 8, !tbaa !17
  %14 = getelementptr inbounds nuw %struct.dict, ptr %13, i32 0, i32 2
  %15 = getelementptr inbounds [2 x i64], ptr %14, i64 0, i64 0
  %16 = load i64, ptr %15, align 8, !tbaa !11
  %17 = load ptr, ptr %4, align 8, !tbaa !17
  %18 = getelementptr inbounds nuw %struct.dict, ptr %17, i32 0, i32 2
  %19 = getelementptr inbounds [2 x i64], ptr %18, i64 0, i64 1
  %20 = load i64, ptr %19, align 8, !tbaa !11
  %21 = add i64 %16, %20
  %22 = add i64 %12, %21
  store i64 %22, ptr %5, align 8, !tbaa !11
  %23 = load i64, ptr %5, align 8
  %24 = atomicrmw add ptr @lazyfree_objects, i64 %23 monotonic, align 8
  store i64 %24, ptr %6, align 8
  %25 = load ptr, ptr %3, align 8, !tbaa !25
  %26 = load ptr, ptr %4, align 8, !tbaa !17
  call void (ptr, i32, ...) @bioCreateLazyFreeJob(ptr noundef @lazyFreeFunctionsCtx, i32 noundef 2, ptr noundef %25, ptr noundef %26)
  br label %30

27:                                               ; preds = %2
  %28 = load ptr, ptr %3, align 8, !tbaa !25
  call void @functionsLibCtxFree(ptr noundef %28)
  %29 = load ptr, ptr %4, align 8, !tbaa !17
  call void @dictRelease(ptr noundef %29)
  br label %30

30:                                               ; preds = %27, %10
  ret void
}