; Function Attrs: nounwind uwtable
define dso_local void @freeFunctionsAsync(ptr noundef %0, ptr noundef %1) local_unnamed_addr #0 {
  %3 = tail call i64 @functionsLibCtxFunctionsLen(ptr noundef %0) #6
  %4 = icmp ugt i64 %3, 64
  br i1 %4, label %5, label %14

5:                                                ; preds = %2
  %6 = tail call i64 @functionsLibCtxFunctionsLen(ptr noundef %0) #6
  %7 = getelementptr inbounds nuw i8, ptr %1, i64 24
  %8 = load i64, ptr %7, align 8, !tbaa !9
  %9 = getelementptr inbounds nuw i8, ptr %1, i64 32
  %10 = load i64, ptr %9, align 8, !tbaa !9
  %11 = add i64 %8, %6
  %12 = add i64 %11, %10
  %13 = atomicrmw add ptr @lazyfree_objects, i64 %12 monotonic, align 8
  tail call void (ptr, i32, ...) @bioCreateLazyFreeJob(ptr noundef nonnull @lazyFreeFunctionsCtx, i32 noundef 2, ptr noundef %0, ptr noundef %1) #6
  br label %15

14:                                               ; preds = %2
  tail call void @functionsLibCtxFree(ptr noundef %0) #6
  tail call void @dictRelease(ptr noundef %1) #6
  br label %15

15:                                               ; preds = %14, %5
  ret void
}